target datalayout = "e-m:e-p270:32:32-p271:32:32-p272:64:64-i64:64-i128:128-f80:128-n8:16:32:64-S128"
target triple = "x86_64-pc-linux-gnu"

; Function Attrs: nounwind uwtable
define internal void @put_uni_pixels_12(ptr noundef %0, i64 noundef %1, ptr noundef %2, i64 noundef %3, i32 noundef %4, ptr noundef %5, ptr noundef %6, i32 noundef %7) #0 {
  %9 = alloca ptr, align 8
  %10 = alloca i64, align 8
  %11 = alloca ptr, align 8
  %12 = alloca i64, align 8
  %13 = alloca i32, align 4
  %14 = alloca ptr, align 8
  %15 = alloca ptr, align 8
  %16 = alloca i32, align 4
  %17 = alloca ptr, align 8
  %18 = alloca ptr, align 8
  %19 = alloca i64, align 8
  %20 = alloca i64, align 8
  %21 = alloca i32, align 4
  store ptr %0, ptr %9, align 8, !tbaa !144
  store i64 %1, ptr %10, align 8, !tbaa !146
  store ptr %2, ptr %11, align 8, !tbaa !144
  store i64 %3, ptr %12, align 8, !tbaa !146
  store i32 %4, ptr %13, align 4, !tbaa !9
  store ptr %5, ptr %14, align 8, !tbaa !144
  store ptr %6, ptr %15, align 8, !tbaa !144
  store i32 %7, ptr %16, align 4, !tbaa !9
  call void @llvm.lifetime.start.p0(i64 8, ptr %17) #8
  %22 = load ptr, ptr %11, align 8, !tbaa !144
  store ptr %22, ptr %17, align 8, !tbaa !142
  call void @llvm.lifetime.start.p0(i64 8, ptr %18) #8
  %23 = load ptr, ptr %9, align 8, !tbaa !144
  store ptr %23, ptr %18, align 8, !tbaa !142
  call void @llvm.lifetime.start.p0(i64 8, ptr %19) #8
  %24 = load i64, ptr %12, align 8, !tbaa !146
  %25 = udiv i64 %24, 2
  store i64 %25, ptr %19, align 8, !tbaa !146
  call void @llvm.lifetime.start.p0(i64 8, ptr %20) #8
  %26 = load i64, ptr %10, align 8, !tbaa !146
  %27 = udiv i64 %26, 2
  store i64 %27, ptr %20, align 8, !tbaa !146
  call void @llvm.lifetime.start.p0(i64 4, ptr %21) #8
  store i32 0, ptr %21, align 4, !tbaa !9
  br label %28

28:                                               ; preds = %45, %8
  %29 = load i32, ptr %21, align 4, !tbaa !9
  %30 = load i32, ptr %13, align 4, !tbaa !9
  %31 = icmp slt i32 %29, %30
  br i1 %31, label %33, label %32

32:                                               ; preds = %28
  call void @llvm.lifetime.end.p0(i64 4, ptr %21) #8
  br label %48

33:                                               ; preds = %28
  %34 = load ptr, ptr %18, align 8, !tbaa !142
  %35 = load ptr, ptr %17, align 8, !tbaa !142
  %36 = load i32, ptr %16, align 4, !tbaa !9
  %37 = sext i32 %36 to i64
  %38 = mul i64 %37, 2
  call void @llvm.memcpy.p0.p0.i64(ptr align 2 %34, ptr align 2 %35, i64 %38, i1 false)
  %39 = load i64, ptr %19, align 8, !tbaa !146
  %40 = load ptr, ptr %17, align 8, !tbaa !142
  %41 = getelementptr inbounds i16, ptr %40, i64 %39
  store ptr %41, ptr %17, align 8, !tbaa !142
  %42 = load i64, ptr %20, align 8, !tbaa !146
  %43 = load ptr, ptr %18, align 8, !tbaa !142
  %44 = getelementptr inbounds i16, ptr %43, i64 %42
  store ptr %44, ptr %18, align 8, !tbaa !142
  br label %45

45:                                               ; preds = %33
  %46 = load i32, ptr %21, align 4, !tbaa !9
  %47 = add nsw i32 %46, 1
  store i32 %47, ptr %21, align 4, !tbaa !9
  br label %28, !llvm.loop !161

48:                                               ; preds = %32
  call void @llvm.lifetime.end.p0(i64 8, ptr %20) #8
  call void @llvm.lifetime.end.p0(i64 8, ptr %19) #8
  call void @llvm.lifetime.end.p0(i64 8, ptr %18) #8
  call void @llvm.lifetime.end.p0(i64 8, ptr %17) #8
  ret void
}