; Function Attrs: nofree norecurse nosync nounwind memory(argmem: readwrite) uwtable
define internal void @put_uni_pixels_12(ptr noundef writeonly captures(none) %0, i64 noundef %1, ptr noundef readonly captures(none) %2, i64 noundef %3, i32 noundef %4, ptr readnone captures(none) %5, ptr readnone captures(none) %6, i32 noundef %7) #2 {
  %9 = lshr i64 %3, 1
  %10 = lshr i64 %1, 1
  %11 = icmp sgt i32 %4, 0
  br i1 %11, label %.lr.ph, label %._crit_edge

.lr.ph:                                           ; preds = %8
  %12 = sext i32 %7 to i64
  %13 = shl nsw i64 %12, 1
  br label %14

._crit_edge:                                      ; preds = %14, %8
  ret void

14:                                               ; preds = %.lr.ph, %14
  %.017 = phi i32 [ 0, %.lr.ph ], [ %17, %14 ]
  %.01316 = phi ptr [ %2, %.lr.ph ], [ %15, %14 ]
  %.01415 = phi ptr [ %0, %.lr.ph ], [ %16, %14 ]
  tail call void @llvm.memcpy.p0.p0.i64(ptr align 2 %.01415, ptr align 2 %.01316, i64 %13, i1 false)
  %15 = getelementptr inbounds nuw i16, ptr %.01316, i64 %9
  %16 = getelementptr inbounds nuw i16, ptr %.01415, i64 %10
  %17 = add nuw nsw i32 %.017, 1
  %exitcond.not = icmp eq i32 %17, %4
  br i1 %exitcond.not, label %._crit_edge, label %14, !llvm.loop !137
}